; Function Attrs: mustprogress nounwind uwtable
define internal void @"_ZNSt17_Function_handlerIFvRN4llvm19MachineInstrBuilderEEZNK12_GLOBAL__N_126AArch64InstructionSelector27selectArithExtendedRegisterERNS0_14MachineOperandEE3$_1E9_M_invokeERKSt9_Any_dataS2_"(ptr nocapture noundef nonnull readonly align 8 dereferenceable(16) %0, ptr nocapture noundef nonnull readonly align 8 dereferenceable(16) %1) #0 align 2 {
switch.lookup:
  %2 = alloca %"class.llvm::MachineOperand", align 8
  %.val = load i32, ptr %0, align 8
  %3 = getelementptr inbounds i8, ptr %0, i64 8
  %.val2 = load i64, ptr %3, align 8
  %.val3 = load ptr, ptr %1, align 8
  %4 = getelementptr inbounds i8, ptr %1, i64 8
  %.val4 = load ptr, ptr %4, align 8
  %switch.tableidx = add nsw i32 %.val, -5
  %switch.idx.cast = zext i32 %switch.tableidx to i64
  %switch.idx.mult = shl nuw nsw i64 %switch.idx.cast, 3
  %5 = and i64 %.val2, 7
  %6 = or disjoint i64 %switch.idx.mult, %5
  call void @llvm.lifetime.start.p0(i64 32, ptr nonnull %2)
  store i32 1, ptr %2, align 8, !alias.scope !235
  %7 = getelementptr inbounds nuw i8, ptr %2, i64 8
  store ptr null, ptr %7, align 8, !alias.scope !235
  %8 = getelementptr inbounds nuw i8, ptr %2, i64 16
  store i64 %6, ptr %8, align 8, !alias.scope !235
  call void @_ZN4llvm12MachineInstr10addOperandERNS_15MachineFunctionERKNS_14MachineOperandE(ptr noundef nonnull align 8 dereferenceable(70) %.val4, ptr noundef nonnull align 8 dereferenceable(1041) %.val3, ptr noundef nonnull align 8 dereferenceable(32) %2) #24
  call void @llvm.lifetime.end.p0(i64 32, ptr nonnull %2)
  ret void
}